target datalayout = "e-m:e-p270:32:32-p271:32:32-p272:64:64-i64:64-i128:128-f80:128-n8:16:32:64-S128"
target triple = "x86_64-unknown-linux-gnu"

%"class.v8::IndirectHandleBase" = type { ptr }
%"class.node::cares_wrap::ChannelWrap" = type { %"class.node::AsyncWrap", ptr, ptr, i8, i8, i8, i32, i32, i32, %"class.std::unordered_set" }
%"class.node::AsyncWrap" = type { %"class.node::BaseObject", i32, i8, double, double }
%"class.node::BaseObject" = type { %"class.node::MemoryRetainer", %"class.v8::Global", ptr, ptr }
%"class.node::MemoryRetainer" = type { ptr }
%"class.v8::Global" = type { %"class.v8::PersistentBase" }
%"class.v8::PersistentBase" = type { %"class.v8::IndirectHandleBase" }
%"class.std::unordered_set" = type { %"class.std::_Hashtable" }
%"class.std::_Hashtable" = type { ptr, i64, %"struct.std::__detail::_Hash_node_base", i64, %"struct.std::__detail::_Prime_rehash_policy", ptr }
%"struct.std::__detail::_Hash_node_base" = type { ptr }
%"struct.std::__detail::_Prime_rehash_policy" = type { float, i64 }
%struct.ares_addr_port_node = type { ptr, i32, %union.anon.298, i32, i32 }
%union.anon.298 = type { %struct.in_addr, [12 x i8] }
%struct.in_addr = type { i32 }

; Function Attrs: mustprogress nounwind uwtable
define dso_local void @_ZN4node10cares_wrap11ChannelWrap13EnsureServersEv(ptr noundef nonnull align 8 dereferenceable(144) %this) #4 align 2 {
entry:
  %this.addr = alloca ptr, align 8
  %servers = alloca ptr, align 8
  store ptr %this, ptr %this.addr, align 8
  %this1 = load ptr, ptr %this.addr, align 8
  %query_last_ok_ = getelementptr inbounds %"class.node::cares_wrap::ChannelWrap", ptr %this1, i32 0, i32 3
  %0 = load i8, ptr %query_last_ok_, align 8
  %tobool = trunc i8 %0 to i1
  br i1 %tobool, label %if.then, label %lor.lhs.false

lor.lhs.false:                                    ; preds = %entry
  %is_servers_default_ = getelementptr inbounds %"class.node::cares_wrap::ChannelWrap", ptr %this1, i32 0, i32 4
  %1 = load i8, ptr %is_servers_default_, align 1
  %tobool2 = trunc i8 %1 to i1
  br i1 %tobool2, label %if.end, label %if.then

if.then:                                          ; preds = %lor.lhs.false, %entry
  br label %return

if.end:                                           ; preds = %lor.lhs.false
  store ptr null, ptr %servers, align 8
  %channel_ = getelementptr inbounds %"class.node::cares_wrap::ChannelWrap", ptr %this1, i32 0, i32 2
  %2 = load ptr, ptr %channel_, align 8
  %call = call i32 @ares_get_servers_ports(ptr noundef %2, ptr noundef %servers)
  %3 = load ptr, ptr %servers, align 8
  %cmp = icmp eq ptr %3, null
  br i1 %cmp, label %if.then3, label %if.end4

if.then3:                                         ; preds = %if.end
  br label %return

if.end4:                                          ; preds = %if.end
  %4 = load ptr, ptr %servers, align 8
  %next = getelementptr inbounds %struct.ares_addr_port_node, ptr %4, i32 0, i32 0
  %5 = load ptr, ptr %next, align 8
  %cmp5 = icmp ne ptr %5, null
  br i1 %cmp5, label %if.then6, label %if.end8

if.then6:                                         ; preds = %if.end4
  %6 = load ptr, ptr %servers, align 8
  call void @ares_free_data(ptr noundef %6)
  %is_servers_default_7 = getelementptr inbounds %"class.node::cares_wrap::ChannelWrap", ptr %this1, i32 0, i32 4
  store i8 0, ptr %is_servers_default_7, align 1
  br label %return

if.end8:                                          ; preds = %if.end4
  %7 = load ptr, ptr %servers, align 8
  %arrayidx = getelementptr inbounds %struct.ares_addr_port_node, ptr %7, i64 0
  %family = getelementptr inbounds %struct.ares_addr_port_node, ptr %arrayidx, i32 0, i32 1
  %8 = load i32, ptr %family, align 8
  %cmp9 = icmp ne i32 %8, 2
  br i1 %cmp9, label %if.then20, label %lor.lhs.false10

lor.lhs.false10:                                  ; preds = %if.end8
  %9 = load ptr, ptr %servers, align 8
  %arrayidx11 = getelementptr inbounds %struct.ares_addr_port_node, ptr %9, i64 0
  %addr = getelementptr inbounds %struct.ares_addr_port_node, ptr %arrayidx11, i32 0, i32 2
  %s_addr = getelementptr inbounds %struct.in_addr, ptr %addr, i32 0, i32 0
  %10 = load i32, ptr %s_addr, align 4
  %call12 = call i32 @htonl(i32 noundef 2130706433) #19
  %cmp13 = icmp ne i32 %10, %call12
  br i1 %cmp13, label %if.then20, label %lor.lhs.false14

lor.lhs.false14:                                  ; preds = %lor.lhs.false10
  %11 = load ptr, ptr %servers, align 8
  %arrayidx15 = getelementptr inbounds %struct.ares_addr_port_node, ptr %11, i64 0
  %tcp_port = getelementptr inbounds %struct.ares_addr_port_node, ptr %arrayidx15, i32 0, i32 4
  %12 = load i32, ptr %tcp_port, align 8
  %cmp16 = icmp ne i32 %12, 0
  br i1 %cmp16, label %if.then20, label %lor.lhs.false17

lor.lhs.false17:                                  ; preds = %lor.lhs.false14
  %13 = load ptr, ptr %servers, align 8
  %arrayidx18 = getelementptr inbounds %struct.ares_addr_port_node, ptr %13, i64 0
  %udp_port = getelementptr inbounds %struct.ares_addr_port_node, ptr %arrayidx18, i32 0, i32 3
  %14 = load i32, ptr %udp_port, align 4
  %cmp19 = icmp ne i32 %14, 0
  br i1 %cmp19, label %if.then20, label %if.end22

if.then20:                                        ; preds = %lor.lhs.false17, %lor.lhs.false14, %lor.lhs.false10, %if.end8
  %15 = load ptr, ptr %servers, align 8
  call void @ares_free_data(ptr noundef %15)
  %is_servers_default_21 = getelementptr inbounds %"class.node::cares_wrap::ChannelWrap", ptr %this1, i32 0, i32 4
  store i8 0, ptr %is_servers_default_21, align 1
  br label %return

if.end22:                                         ; preds = %lor.lhs.false17
  %16 = load ptr, ptr %servers, align 8
  call void @ares_free_data(ptr noundef %16)
  store ptr null, ptr %servers, align 8
  %channel_23 = getelementptr inbounds %"class.node::cares_wrap::ChannelWrap", ptr %this1, i32 0, i32 2
  %17 = load ptr, ptr %channel_23, align 8
  call void @ares_destroy(ptr noundef %17)
  call void @_ZN4node10cares_wrap11ChannelWrap10CloseTimerEv(ptr noundef nonnull align 8 dereferenceable(144) %this1)
  call void @_ZN4node10cares_wrap11ChannelWrap5SetupEv(ptr noundef nonnull align 8 dereferenceable(144) %this1)
  br label %return

return:                                           ; preds = %if.end22, %if.then20, %if.then6, %if.then3, %if.then
  ret void
}