; Function Attrs: mustprogress nounwind uwtable
define dso_local void @_ZN4node10cares_wrap11ChannelWrap13EnsureServersEv(ptr noundef nonnull align 8 dereferenceable(144) %this) local_unnamed_addr #3 align 2 {
entry:
  %servers = alloca ptr, align 8
  %query_last_ok_ = getelementptr inbounds i8, ptr %this, i64 72
  %0 = load i8, ptr %query_last_ok_, align 8
  %1 = and i8 %0, 1
  %tobool.not = icmp eq i8 %1, 0
  br i1 %tobool.not, label %lor.lhs.false, label %return

lor.lhs.false:                                    ; preds = %entry
  %is_servers_default_ = getelementptr inbounds i8, ptr %this, i64 73
  %2 = load i8, ptr %is_servers_default_, align 1
  %3 = and i8 %2, 1
  %tobool2.not = icmp eq i8 %3, 0
  br i1 %tobool2.not, label %return, label %if.end

if.end:                                           ; preds = %lor.lhs.false
  store ptr null, ptr %servers, align 8
  %channel_ = getelementptr inbounds i8, ptr %this, i64 64
  %4 = load ptr, ptr %channel_, align 8
  %call = call i32 @ares_get_servers_ports(ptr noundef %4, ptr noundef nonnull %servers) #20
  %5 = load ptr, ptr %servers, align 8
  %cmp = icmp eq ptr %5, null
  br i1 %cmp, label %return, label %if.end4

if.end4:                                          ; preds = %if.end
  %6 = load ptr, ptr %5, align 8
  %cmp5.not = icmp eq ptr %6, null
  br i1 %cmp5.not, label %if.end8, label %if.then6

if.then6:                                         ; preds = %if.end4
  call void @ares_free_data(ptr noundef nonnull %5) #20
  store i8 0, ptr %is_servers_default_, align 1
  br label %return

if.end8:                                          ; preds = %if.end4
  %family = getelementptr inbounds i8, ptr %5, i64 8
  %7 = load i32, ptr %family, align 8
  %cmp9.not = icmp eq i32 %7, 2
  br i1 %cmp9.not, label %lor.lhs.false10, label %if.then20

lor.lhs.false10:                                  ; preds = %if.end8
  %addr = getelementptr inbounds i8, ptr %5, i64 12
  %8 = load i32, ptr %addr, align 4
  %call12 = call i32 @htonl(i32 noundef 2130706433) #24
  %cmp13.not = icmp eq i32 %8, %call12
  br i1 %cmp13.not, label %lor.lhs.false14, label %if.then20

lor.lhs.false14:                                  ; preds = %lor.lhs.false10
  %tcp_port = getelementptr inbounds i8, ptr %5, i64 32
  %9 = load i32, ptr %tcp_port, align 8
  %cmp16.not = icmp eq i32 %9, 0
  br i1 %cmp16.not, label %lor.lhs.false17, label %if.then20

lor.lhs.false17:                                  ; preds = %lor.lhs.false14
  %udp_port = getelementptr inbounds i8, ptr %5, i64 28
  %10 = load i32, ptr %udp_port, align 4
  %cmp19.not = icmp eq i32 %10, 0
  br i1 %cmp19.not, label %if.end22, label %if.then20

if.then20:                                        ; preds = %lor.lhs.false17, %lor.lhs.false14, %lor.lhs.false10, %if.end8
  call void @ares_free_data(ptr noundef nonnull %5) #20
  store i8 0, ptr %is_servers_default_, align 1
  br label %return

if.end22:                                         ; preds = %lor.lhs.false17
  call void @ares_free_data(ptr noundef nonnull %5) #20
  store ptr null, ptr %servers, align 8
  %11 = load ptr, ptr %channel_, align 8
  call void @ares_destroy(ptr noundef %11) #20
  call void @_ZN4node10cares_wrap11ChannelWrap10CloseTimerEv(ptr noundef nonnull align 8 dereferenceable(144) %this)
  call void @_ZN4node10cares_wrap11ChannelWrap5SetupEv(ptr noundef nonnull align 8 dereferenceable(144) %this)
  br label %return

return:                                           ; preds = %if.end, %entry, %lor.lhs.false, %if.end22, %if.then20, %if.then6
  ret void
}